; Function Attrs: mustprogress nounwind uwtable
define hidden noundef ptr @_ZNK7AddNode15add_of_identityEPK4TypeS2_(ptr noundef nonnull align 8 dereferenceable(52) %0, ptr noundef %1, ptr noundef %2) unnamed_addr #0 align 2 {
  %4 = load ptr, ptr %0, align 8
  %5 = getelementptr inbounds i8, ptr %4, i64 208
  %6 = load ptr, ptr %5, align 8
  %7 = tail call noundef ptr %6(ptr noundef nonnull align 8 dereferenceable(52) %0) #7
  %8 = tail call noundef ptr @_ZNK4Type11meet_helperEPKS_b(ptr noundef nonnull align 8 dereferenceable(20) %1, ptr noundef %7, i1 noundef zeroext false) #7
  %9 = load ptr, ptr %7, align 8
  %10 = getelementptr inbounds i8, ptr %9, i64 128
  %11 = load ptr, ptr %10, align 8
  %12 = tail call noundef ptr %11(ptr noundef nonnull align 8 dereferenceable(20) %7) #7
  %13 = tail call noundef zeroext i1 @_ZN4Type6equalsEPKS_S1_(ptr noundef %8, ptr noundef %12) #7
  br i1 %13, label %21, label %14

14:                                               ; preds = %3
  %15 = tail call noundef ptr @_ZNK4Type11meet_helperEPKS_b(ptr noundef nonnull align 8 dereferenceable(20) %2, ptr noundef nonnull %7, i1 noundef zeroext false) #7
  %16 = load ptr, ptr %7, align 8
  %17 = getelementptr inbounds i8, ptr %16, i64 128
  %18 = load ptr, ptr %17, align 8
  %19 = tail call noundef ptr %18(ptr noundef nonnull align 8 dereferenceable(20) %7) #7
  %20 = tail call noundef zeroext i1 @_ZN4Type6equalsEPKS_S1_(ptr noundef %15, ptr noundef %19) #7
  %. = select i1 %20, ptr %1, ptr null
  br label %21

21:                                               ; preds = %14, %3
  %.0 = phi ptr [ %2, %3 ], [ %., %14 ]
  ret ptr %.0
}